target datalayout = "e-m:e-p270:32:32-p271:32:32-p272:64:64-i64:64-i128:128-f80:128-n8:16:32:64-S128"
target triple = "x86_64-pc-linux-gnu"

%struct.SDL_Rect = type { i32, i32, i32, i32 }
%struct.SDL_VideoData = type { ptr, ptr, i32, ptr, i64, i32, ptr, i32, i64, i64, %struct.X11_ClipboardData, %struct.X11_ClipboardData, ptr, i64, %struct.X11_SettingsData, i8, %struct.anon.1, [256 x i32], i8, i8, i8, i64, i8, %struct.SDL_Point, i32, ptr, i32, i8, i32, %struct.anon.2, i8, i64, ptr, ptr, i8, i8, i8 }
%struct.X11_ClipboardData = type { ptr, ptr, ptr, i64, i32 }
%struct.X11_SettingsData = type { ptr }
%struct.anon.1 = type { i64, i64, i64, i64, i64, i64, i64, i64, i64, i64, i64, i64, i64, i64, i64, i64, i64, i64, i64, i64, i64, i64, i64, i64, i64, i64, i64, i64, i64, i64, i64, i64, i64, i64, i64, i64, i64, i64, i64, i64, i64, i64, i64, i64, i64, i64, i64, i64, i64, i64, i64, i64, i64 }
%struct.SDL_Point = type { i32, i32 }
%struct.anon.2 = type { ptr, i32, i32, i32, i16, i32, i32 }
%struct.SDL_Window = type { i32, ptr, ptr, i32, i32, i32, i32, i32, i32, i32, i32, float, float, i32, i32, i64, i64, float, i8, i8, i32, i32, %struct.SDL_Rect, %struct.SDL_Rect, %struct.SDL_Rect, i8, i8, i8, %struct.SDL_DisplayMode, %struct.SDL_DisplayMode, %struct.SDL_HDROutputProperties, float, ptr, i8, i8, i8, i8, i8, i8, i8, i8, i8, i32, i32, i32, i32, %struct.SDL_Rect, i32, i8, %struct.SDL_Rect, i32, %struct.SDL_Rect, ptr, ptr, i32, float, i32, i32, ptr, ptr, ptr, ptr, ptr, ptr, ptr, ptr, ptr }
%struct.SDL_DisplayMode = type { i32, i32, i32, i32, float, float, i32, i32, ptr }
%struct.SDL_HDROutputProperties = type { float, float }
%struct.XWMHints = type { i64, i32, i32, i64, i64, i32, i32, i64, i64 }
%struct.SDL_WindowData = type { ptr, i64, ptr, i64, i8, %struct.XShmSegmentInfo, ptr, ptr, ptr, i8, i32, i32, i32, i32, i8, i8, i8, i64, i32, i64, i8, %struct.SDL_Point, %struct.XConfigureEvent, %struct.XConfigureEvent, ptr, i64, i64, i64, i8, i64, ptr, i8, [4 x i64], %struct.SDL_Rect, i64, %struct._XSyncValue, i8, %struct.SDL_Rect, %struct.SDL_DisplayMode, i32, i32, i8, i8, i8, i8, i8, i8, i8, i8, i32, %struct.XPoint, ptr, ptr, i32, i32, i8 }
%struct.XShmSegmentInfo = type { i64, i32, ptr, i32 }
%struct.XConfigureEvent = type { i32, i64, i32, ptr, i64, i64, i32, i32, i32, i32, i32, i64, i32 }
%struct._XSyncValue = type { i32, i32 }
%struct.XPoint = type { i16, i16 }

@X11_XFree = external global ptr, align 8
@X11_XGetWMHints = external global ptr, align 8
@.str.35 = private unnamed_addr constant [22 x i8] c"Couldn't get WM hints\00", align 1
@X11_XSetWMHints = external global ptr, align 8

; Function Attrs: nounwind uwtable
define hidden zeroext i1 @X11_FlashWindow(ptr noundef %0, ptr noundef %1, i32 noundef %2) #0 {
  %4 = alloca i1, align 1
  %5 = alloca ptr, align 8
  %6 = alloca ptr, align 8
  %7 = alloca i32, align 4
  %8 = alloca ptr, align 8
  %9 = alloca ptr, align 8
  %10 = alloca ptr, align 8
  %11 = alloca i32, align 4
  store ptr %0, ptr %5, align 8
  store ptr %1, ptr %6, align 8
  store i32 %2, ptr %7, align 4
  call void @llvm.lifetime.start.p0(i64 8, ptr %8) #7
  %12 = load ptr, ptr %6, align 8
  %13 = getelementptr inbounds nuw %struct.SDL_Window, ptr %12, i32 0, i32 59
  %14 = load ptr, ptr %13, align 8
  store ptr %14, ptr %8, align 8
  call void @llvm.lifetime.start.p0(i64 8, ptr %9) #7
  %15 = load ptr, ptr %8, align 8
  %16 = getelementptr inbounds nuw %struct.SDL_WindowData, ptr %15, i32 0, i32 24
  %17 = load ptr, ptr %16, align 8
  %18 = getelementptr inbounds nuw %struct.SDL_VideoData, ptr %17, i32 0, i32 0
  %19 = load ptr, ptr %18, align 8
  store ptr %19, ptr %9, align 8
  call void @llvm.lifetime.start.p0(i64 8, ptr %10) #7
  %20 = load ptr, ptr @X11_XGetWMHints, align 8
  %21 = load ptr, ptr %9, align 8
  %22 = load ptr, ptr %8, align 8
  %23 = getelementptr inbounds nuw %struct.SDL_WindowData, ptr %22, i32 0, i32 1
  %24 = load i64, ptr %23, align 8
  %25 = call ptr %20(ptr noundef %21, i64 noundef %24)
  store ptr %25, ptr %10, align 8
  %26 = load ptr, ptr %10, align 8
  %27 = icmp ne ptr %26, null
  br i1 %27, label %30, label %28

28:                                               ; preds = %3
  %29 = call zeroext i1 (ptr, ...) @SDL_SetError_REAL(ptr noundef @.str.35)
  store i1 %29, ptr %4, align 1
  store i32 1, ptr %11, align 4
  br label %83

30:                                               ; preds = %3
  %31 = load ptr, ptr %10, align 8
  %32 = getelementptr inbounds nuw %struct.XWMHints, ptr %31, i32 0, i32 0
  %33 = load i64, ptr %32, align 8
  %34 = and i64 %33, -257
  store i64 %34, ptr %32, align 8
  %35 = load ptr, ptr %8, align 8
  %36 = getelementptr inbounds nuw %struct.SDL_WindowData, ptr %35, i32 0, i32 28
  store i8 0, ptr %36, align 8
  %37 = load ptr, ptr %8, align 8
  %38 = getelementptr inbounds nuw %struct.SDL_WindowData, ptr %37, i32 0, i32 29
  store i64 0, ptr %38, align 8
  %39 = load i32, ptr %7, align 4
  switch i32 %39, label %72 [
    i32 0, label %73
    i32 1, label %40
    i32 2, label %58
  ]

40:                                               ; preds = %30
  %41 = load ptr, ptr %6, align 8
  %42 = getelementptr inbounds nuw %struct.SDL_Window, ptr %41, i32 0, i32 15
  %43 = load i64, ptr %42, align 8
  %44 = and i64 %43, 512
  %45 = icmp ne i64 %44, 0
  br i1 %45, label %57, label %46

46:                                               ; preds = %40
  %47 = load ptr, ptr %10, align 8
  %48 = getelementptr inbounds nuw %struct.XWMHints, ptr %47, i32 0, i32 0
  %49 = load i64, ptr %48, align 8
  %50 = or i64 %49, 256
  store i64 %50, ptr %48, align 8
  %51 = load ptr, ptr %8, align 8
  %52 = getelementptr inbounds nuw %struct.SDL_WindowData, ptr %51, i32 0, i32 28
  store i8 1, ptr %52, align 8
  %53 = call i64 @SDL_GetTicks_REAL()
  %54 = add i64 %53, 1000
  %55 = load ptr, ptr %8, align 8
  %56 = getelementptr inbounds nuw %struct.SDL_WindowData, ptr %55, i32 0, i32 29
  store i64 %54, ptr %56, align 8
  br label %57

57:                                               ; preds = %46, %40
  br label %73

58:                                               ; preds = %30
  %59 = load ptr, ptr %6, align 8
  %60 = getelementptr inbounds nuw %struct.SDL_Window, ptr %59, i32 0, i32 15
  %61 = load i64, ptr %60, align 8
  %62 = and i64 %61, 512
  %63 = icmp ne i64 %62, 0
  br i1 %63, label %71, label %64

64:                                               ; preds = %58
  %65 = load ptr, ptr %10, align 8
  %66 = getelementptr inbounds nuw %struct.XWMHints, ptr %65, i32 0, i32 0
  %67 = load i64, ptr %66, align 8
  %68 = or i64 %67, 256
  store i64 %68, ptr %66, align 8
  %69 = load ptr, ptr %8, align 8
  %70 = getelementptr inbounds nuw %struct.SDL_WindowData, ptr %69, i32 0, i32 28
  store i8 1, ptr %70, align 8
  br label %71

71:                                               ; preds = %64, %58
  br label %73

72:                                               ; preds = %30
  br label %73

73:                                               ; preds = %72, %71, %57, %30
  %74 = load ptr, ptr @X11_XSetWMHints, align 8
  %75 = load ptr, ptr %9, align 8
  %76 = load ptr, ptr %8, align 8
  %77 = getelementptr inbounds nuw %struct.SDL_WindowData, ptr %76, i32 0, i32 1
  %78 = load i64, ptr %77, align 8
  %79 = load ptr, ptr %10, align 8
  call void %74(ptr noundef %75, i64 noundef %78, ptr noundef %79)
  %80 = load ptr, ptr @X11_XFree, align 8
  %81 = load ptr, ptr %10, align 8
  %82 = call i32 %80(ptr noundef %81)
  store i1 true, ptr %4, align 1
  store i32 1, ptr %11, align 4
  br label %83

83:                                               ; preds = %73, %28
  call void @llvm.lifetime.end.p0(i64 8, ptr %10) #7
  call void @llvm.lifetime.end.p0(i64 8, ptr %9) #7
  call void @llvm.lifetime.end.p0(i64 8, ptr %8) #7
  %84 = load i1, ptr %4, align 1
  ret i1 %84
}