; Function Attrs: nounwind uwtable
define hidden zeroext i1 @X11_FlashWindow(ptr noundef readnone captures(none) %0, ptr noundef readonly captures(none) %1, i32 noundef %2) local_unnamed_addr #0 {
  %4 = getelementptr inbounds nuw i8, ptr %1, i64 392
  %5 = load ptr, ptr %4, align 8
  %6 = getelementptr inbounds nuw i8, ptr %5, i64 336
  %7 = load ptr, ptr %6, align 8
  %8 = load ptr, ptr %7, align 8
  %9 = load ptr, ptr @X11_XGetWMHints, align 8
  %10 = getelementptr inbounds nuw i8, ptr %5, i64 8
  %11 = load i64, ptr %10, align 8
  %12 = tail call ptr %9(ptr noundef %8, i64 noundef %11) #12
  %.not = icmp eq ptr %12, null
  br i1 %.not, label %13, label %15

13:                                               ; preds = %3
  %14 = tail call zeroext i1 (ptr, ...) @SDL_SetError_REAL(ptr noundef nonnull @.str.35) #12
  br label %41

15:                                               ; preds = %3
  %16 = load i64, ptr %12, align 8
  %17 = and i64 %16, -257
  store i64 %17, ptr %12, align 8
  %18 = getelementptr inbounds nuw i8, ptr %5, i64 368
  store i8 0, ptr %18, align 8
  %19 = getelementptr inbounds nuw i8, ptr %5, i64 376
  store i64 0, ptr %19, align 8
  switch i32 %2, label %36 [
    i32 2, label %29
    i32 1, label %20
  ]

20:                                               ; preds = %15
  %21 = getelementptr inbounds nuw i8, ptr %1, i64 72
  %22 = load i64, ptr %21, align 8
  %23 = and i64 %22, 512
  %.not21 = icmp eq i64 %23, 0
  br i1 %.not21, label %24, label %36

24:                                               ; preds = %20
  %25 = load i64, ptr %12, align 8
  %26 = or i64 %25, 256
  store i64 %26, ptr %12, align 8
  store i8 1, ptr %18, align 8
  %27 = tail call i64 @SDL_GetTicks_REAL() #12
  %28 = add i64 %27, 1000
  store i64 %28, ptr %19, align 8
  br label %36

29:                                               ; preds = %15
  %30 = getelementptr inbounds nuw i8, ptr %1, i64 72
  %31 = load i64, ptr %30, align 8
  %32 = and i64 %31, 512
  %.not22 = icmp eq i64 %32, 0
  br i1 %.not22, label %33, label %36

33:                                               ; preds = %29
  %34 = load i64, ptr %12, align 8
  %35 = or i64 %34, 256
  store i64 %35, ptr %12, align 8
  store i8 1, ptr %18, align 8
  br label %36

36:                                               ; preds = %15, %29, %33, %20, %24
  %37 = load ptr, ptr @X11_XSetWMHints, align 8
  %38 = load i64, ptr %10, align 8
  tail call void %37(ptr noundef %8, i64 noundef %38, ptr noundef nonnull %12) #12
  %39 = load ptr, ptr @X11_XFree, align 8
  %40 = tail call i32 %39(ptr noundef nonnull %12) #12
  br label %41

41:                                               ; preds = %36, %13
  %.0 = phi i1 [ true, %36 ], [ %14, %13 ]
  ret i1 %.0
}